ASxxxx Linker V03.00 + NoICE + sdld,  page 1.
Hexadecimal  [32-Bits]

Area                                    Addr        Size        Decimal Bytes (Attributes)
--------------------------------        ----        ----        ------- ----- ------------
CABS                                00000000    00000000 =           0. bytes (ABS,CON,CODE)

      Value  Global                              Global Defined In Module
      -----  --------------------------------   ------------------------
C:   00000000  l_CABS                          
C:   00000000  l_GSINIT                        
C:   00000000  l_GSINIT1                       
C:   00000000  l_GSINIT5                       
C:   00000000  l_IABS                          
C:   00000000  l_PSEG                          
C:   00000000  l_REG_BANK_2                    
C:   00000000  l_REG_BANK_3                    
C:   00000000  l_RSEG                          
C:   00000000  l_RSEG0                         
C:   00000000  l_RSEG1                         
C:   00000000  l_XABS                          
C:   00000000  l__CODE                         
C:   00000000  s_BSEG                          
C:   00000000  s_CABS                          
C:   00000000  s_DSEG                          
C:   00000000  s_HOME                          
C:   00000000  s_IABS                          
C:   00000000  s_REG_BANK_0                    
C:   00000000  s_RSEG                          
C:   00000000  s_RSEG0                         
C:   00000000  s_RSEG1                         
C:   00000000  s_XABS                          
C:   00000001  l_BIT_BANK                      
C:   00000001  l_BSEG_BYTES                    
C:   00000001  s_PSEG                          
C:   00000001  s_XSEG                          
C:   00000002  l_OSEG                          
C:   00000003  l_BSEG                          
C:   00000003  l_GSFINAL                       
C:   00000003  l_GSINIT0                       
C:   00000008  l_REG_BANK_0                    
C:   00000008  l_REG_BANK_1                    
C:   00000008  s_REG_BANK_1                    
C:   0000000A  l_GSINIT2                       
C:   0000000C  l_SSEG                          
C:   00000010  s_REG_BANK_2                    
C:   00000014  s_OSEG                          
C:   00000018  s_REG_BANK_3                    
C:   00000020  s_BSEG_BYTES                    
C:   00000020  s__CODE                         
C:   00000021  s_BIT_BANK                      
C:   00000022  l_GSINIT3                       
C:   00000022  s_ISEG                          
C:   0000002A  l_GSINIT4                       
C:   0000002B  l_XINIT                         
C:   0000002B  l_XISEG                         
C:   00000049  l_HOME                          
C:   00000049  s_GSINIT0                       
C:   0000004C  s_GSINIT1                       
ASxxxx Linker V03.00 + NoICE + sdld,  page 2.
Hexadecimal  [32-Bits]

Area                                    Addr        Size        Decimal Bytes (Attributes)
--------------------------------        ----        ----        ------- ----- ------------
CABS                                00000000    00000000 =           0. bytes (ABS,CON,CODE)

      Value  Global                              Global Defined In Module
      -----  --------------------------------   ------------------------
C:   0000004C  s_GSINIT2                       
C:   00000056  s_GSINIT3                       
C:   00000076  l_DSEG                          
C:   00000078  s_GSINIT4                       
C:   000000A2  s_GSFINAL                       
C:   000000A2  s_GSINIT                        
C:   000000A2  s_GSINIT5                       
C:   000000A5  s_CSEG                          
C:   000000D2  l_ISEG                          
C:   000000F4  s_SSEG                          
C:   00000100  l_IRAM                          
C:   000002AE  l_CONST                         
C:   0000039F  l_XSEG                          
C:   000003A0  s_XISEG                         
C:   00001EB9  l_CSEG                          
C:   00001F5E  s_CONST                         
C:   0000220C  s_XINIT                         

ASxxxx Linker V03.00 + NoICE + sdld,  page 3.
Hexadecimal  [32-Bits]

Area                                    Addr        Size        Decimal Bytes (Attributes)
--------------------------------        ----        ----        ------- ----- ------------
.  .ABS.                            00000000    00000000 =           0. bytes (ABS,CON)

      Value  Global                              Global Defined In Module
      -----  --------------------------------   ------------------------
     00000000  .__.ABS.                           _startup
     00000080  _P0                                strorage
     00000080  _P0_0                              strorage
     00000081  _P0_1                              strorage
     00000081  _SP                                strorage
     00000082  _DPL                               strorage
     00000082  _P0_2                              strorage
     00000083  _DPH                               strorage
     00000083  _P0_3                              strorage
     00000084  _P0_4                              strorage
     00000085  _P0_5                              strorage
     00000086  _P0_6                              strorage
     00000087  _P0_7                              strorage
     00000087  _PCON                              strorage
     00000088  _IT0                               strorage
     00000088  _TCON                              strorage
     00000089  _IE0                               strorage
     00000089  _TMOD                              strorage
     0000008A  _IT1                               strorage
     0000008A  _TL0                               strorage
     0000008B  _IE1                               strorage
     0000008B  _TL1                               strorage
     0000008C  _TH0                               strorage
     0000008C  _TR0                               strorage
     0000008D  _TF0                               strorage
     0000008D  _TH1                               strorage
     0000008E  _AUXR                              strorage
     0000008E  _TR1                               strorage
     0000008F  _TF1                               strorage
     0000008F  _WAKE_CLKO                         strorage
     00000090  _P1                                strorage
     00000090  _P1_0                              strorage
     00000091  _P1_1                              strorage
     00000092  _P1_2                              strorage
     00000093  _P1_3                              strorage
     00000094  _P1_4                              strorage
     00000095  _P1_5                              strorage
     00000096  _P1_6                              strorage
     00000097  _P1_7                              strorage
     00000098  _RI                                strorage
     00000098  _SCON                              strorage
     00000099  _SBUF                              strorage
     00000099  _TI                                strorage
     0000009A  _RB8                               strorage
     0000009A  _S2CON                             strorage
     0000009B  _S2BUF                             strorage
     0000009B  _TB8                               strorage
     0000009C  _BRT                               strorage
     0000009C  _REN                               strorage
     0000009D  _SM2                               strorage
ASxxxx Linker V03.00 + NoICE + sdld,  page 4.
Hexadecimal  [32-Bits]

Area                                    Addr        Size        Decimal Bytes (Attributes)
--------------------------------        ----        ----        ------- ----- ------------
.  .ABS.                            00000000    00000000 =           0. bytes (ABS,CON)

      Value  Global                              Global Defined In Module
      -----  --------------------------------   ------------------------
     0000009E  _SM1                               strorage
     0000009F  _SM0                               strorage
     000000A0  _P2                                strorage
     000000A0  _P2_0                              strorage
     000000A0  __XPAGE                            
     000000A1  _P2_1                              strorage
     000000A2  _AUXR1                             strorage
     000000A2  _P2_2                              strorage
     000000A3  _P2_3                              strorage
     000000A4  _P2_4                              strorage
     000000A5  _P2_5                              strorage
     000000A6  _P2_6                              strorage
     000000A7  _P2_7                              strorage
     000000A8  _EX0                               strorage
     000000A8  _IE                                strorage
     000000A9  _ET0                               strorage
     000000AA  _EX1                               strorage
     000000AB  _ET1                               strorage
     000000AC  _ES                                strorage
     000000AD  _ET2                               strorage
     000000AF  _EA                                strorage
     000000AF  _IE2                               strorage
     000000B0  _P3                                strorage
     000000B0  _P3_0                              strorage
     000000B0  _RXD                               strorage
     000000B1  _P3_1                              strorage
     000000B1  _TXD                               strorage
     000000B2  _INT0                              strorage
     000000B2  _P3_2                              strorage
     000000B3  _INT1                              strorage
     000000B3  _P3_3                              strorage
     000000B4  _P3_4                              strorage
     000000B4  _T0                                strorage
     000000B5  _P3_5                              strorage
     000000B5  _T1                                strorage
     000000B6  _P3_6                              strorage
     000000B6  _WR                                strorage
     000000B7  _P3_7                              strorage
     000000B7  _RD                                strorage
     000000B8  _IP                                strorage
     000000B8  _PX0                               strorage
     000000B9  _PT0                               strorage
     000000BA  _PX1                               strorage
     000000BB  _PT1                               strorage
     000000BC  _PS                                strorage
     000000BD  _PT2                               strorage
     000000C7  _IAP_CONTR                         test
     000000C8  _CP_RL2                            strorage
     000000C8  _T2CON                             strorage
     000000C8  _T2CON_0                           strorage
     000000C9  _C_T2                              strorage
ASxxxx Linker V03.00 + NoICE + sdld,  page 5.
Hexadecimal  [32-Bits]

Area                                    Addr        Size        Decimal Bytes (Attributes)
--------------------------------        ----        ----        ------- ----- ------------
.  .ABS.                            00000000    00000000 =           0. bytes (ABS,CON)

      Value  Global                              Global Defined In Module
      -----  --------------------------------   ------------------------
     000000C9  _T2CON_1                           strorage
     000000CA  _RCAP2L                            strorage
     000000CA  _T2CON_2                           strorage
     000000CA  _TR2                               strorage
     000000CB  _EXEN2                             strorage
     000000CB  _RCAP2H                            strorage
     000000CB  _T2CON_3                           strorage
     000000CC  _T2CON_4                           strorage
     000000CC  _TCLK                              strorage
     000000CC  _TL2                               strorage
     000000CD  _RCLK                              strorage
     000000CD  _T2CON_5                           strorage
     000000CD  _TH2                               strorage
     000000CE  _EXF2                              strorage
     000000CE  _T2CON_6                           strorage
     000000CF  _T2CON_7                           strorage
     000000CF  _TF2                               strorage
     000000D0  _P                                 strorage
     000000D0  _PSW                               strorage
     000000D1  _F1                                strorage
     000000D2  _OV                                strorage
     000000D3  _RS0                               strorage
     000000D4  _RS1                               strorage
     000000D5  _F0                                strorage
     000000D6  _AC                                strorage
     000000D7  _CY                                strorage
     000000D8  _CCF0                              strorage
     000000D8  _CCON                              strorage
     000000D9  _CCF1                              strorage
     000000D9  _CMOD                              strorage
     000000DA  _CCAPM0                            strorage
     000000DB  _CCAPM1                            strorage
     000000DE  _CR                                strorage
     000000DF  _CF                                strorage
     000000E0  _ACC                               strorage
     000000E9  _CL                                strorage
     000000EA  _CCAP0L                            strorage
     000000EB  _CCAP1L                            strorage
     000000F0  _B                                 strorage
     000000F2  _PCA_PWM0                          strorage
     000000F3  _PCA_PWM1                          strorage
     000000F5  _B_5                               _gptrget
     000000F6  _B_6                               _gptrget
     000000F7  _B_7                               _gptrget
     000000F9  _CH                                strorage
     000000FA  _CCAP0H                            strorage
     000000FB  _CCAP1H                            strorage

ASxxxx Linker V03.00 + NoICE + sdld,  page 6.
Hexadecimal  [32-Bits]

Area                                    Addr        Size        Decimal Bytes (Attributes)
--------------------------------        ----        ----        ------- ----- ------------
BSEG_BYTES                          00000020    00000001 =           1. bytes (REL,CON)

      Value  Global                              Global Defined In Module
      -----  --------------------------------   ------------------------
ASxxxx Linker V03.00 + NoICE + sdld,  page 7.
Hexadecimal  [32-Bits]

Area                                    Addr        Size        Decimal Bytes (Attributes)
--------------------------------        ----        ----        ------- ----- ------------
REG_BANK_0                          00000000    00000008 =           8. bytes (REL,OVR)

      Value  Global                              Global Defined In Module
      -----  --------------------------------   ------------------------
ASxxxx Linker V03.00 + NoICE + sdld,  page 8.
Hexadecimal  [32-Bits]

Area                                    Addr        Size        Decimal Bytes (Attributes)
--------------------------------        ----        ----        ------- ----- ------------
REG_BANK_1                          00000008    00000008 =           8. bytes (REL,OVR)

      Value  Global                              Global Defined In Module
      -----  --------------------------------   ------------------------
ASxxxx Linker V03.00 + NoICE + sdld,  page 9.
Hexadecimal  [32-Bits]

Area                                    Addr        Size        Decimal Bytes (Attributes)
--------------------------------        ----        ----        ------- ----- ------------
BIT_BANK                            00000021    00000001 =           1. bytes (REL,OVR)

      Value  Global                              Global Defined In Module
      -----  --------------------------------   ------------------------
ASxxxx Linker V03.00 + NoICE + sdld,  page 10.
Hexadecimal  [32-Bits]

Area                                    Addr        Size        Decimal Bytes (Attributes)
--------------------------------        ----        ----        ------- ----- ------------
DSEG                                00000000    00000076 =         118. bytes (REL,CON)

      Value  Global                              Global Defined In Module
      -----  --------------------------------   ------------------------
     00000013  _bp                                _bp

ASxxxx Linker V03.00 + NoICE + sdld,  page 11.
Hexadecimal  [32-Bits]

Area                                    Addr        Size        Decimal Bytes (Attributes)
--------------------------------        ----        ----        ------- ----- ------------
OSEG                                00000014    00000002 =           2. bytes (REL,OVR)

      Value  Global                              Global Defined In Module
      -----  --------------------------------   ------------------------
ASxxxx Linker V03.00 + NoICE + sdld,  page 12.
Hexadecimal  [32-Bits]

Area                                    Addr        Size        Decimal Bytes (Attributes)
--------------------------------        ----        ----        ------- ----- ------------
ISEG                                00000022    000000D2 =         210. bytes (REL,CON)

      Value  Global                              Global Defined In Module
      -----  --------------------------------   ------------------------
     00000022  _os_stack                          core
     000000DA  _stack_int                         core
     000000EE  _CUR_TCB_T                         core
     000000F1  _HIGHT_TCB_T                       core

ASxxxx Linker V03.00 + NoICE + sdld,  page 13.
Hexadecimal  [32-Bits]

Area                                    Addr        Size        Decimal Bytes (Attributes)
--------------------------------        ----        ----        ------- ----- ------------
SSEG                                000000F4    0000000C =          12. bytes (REL,OVR)

      Value  Global                              Global Defined In Module
      -----  --------------------------------   ------------------------
     000000F4  __start__stack                     test

ASxxxx Linker V03.00 + NoICE + sdld,  page 14.
Hexadecimal  [32-Bits]

Area                                    Addr        Size        Decimal Bytes (Attributes)
--------------------------------        ----        ----        ------- ----- ------------
XSEG                                00000001    0000039F =         927. bytes (REL,CON,XDATA)

      Value  Global                              Global Defined In Module
      -----  --------------------------------   ------------------------
D:   00000001  _READY                             core
D:   00000003  _CUR                               core
D:   00000005  _tcb                               core
D:   0000001D  _interrup                          core
D:   0000001E  _tcb_t                             core
D:   00000037  _stack_init_PARM_2                 core
D:   0000003C  _tcb_init_PARM_2                   core
D:   00000041  _task_create_PARM_2                core
D:   0000004E  _interrupt_count                   test
D:   0000008E  _TI1                               serial
D:   00000093  _display_PARM_2                    serial
D:   00000099  _serial_buf                        serial
D:   000000FD  _receive_data_PARM_2               serial
D:   0000010B  _cur_send                          wifi
D:   0000010E  _TI2                               wifi
D:   0000010F  _wifi_buf                          wifi
D:   0000012D  _wifi_data                         wifi
D:   00000191  _wifi_buf_r                        wifi
D:   00000193  _wifi_buf_w                        wifi
D:   00000195  _wifi_buf_end                      wifi
D:   00000197  _wifi_data_r                       wifi
D:   00000199  _wifi_data_w                       wifi
D:   0000019B  _wifi_data_end                     wifi
D:   0000019D  _receive_data2_PARM_2              wifi
D:   000001A5  _memset_PARM_2                     libc
D:   000001A6  _memset_PARM_3                     libc
D:   000001AE  _memcpy_PARM_2                     libc
D:   000001B1  _memcpy_PARM_3                     libc
D:   000001BC  _memcmp_PARM_2                     libc
D:   000001BF  _memcmp_PARM_3                     libc
D:   000001CA  _strcpy_PARM_2                     libc
D:   000001D0  _strcat_PARM_2                     libc
D:   000001D4  _time                              hongwai
D:   000001D6  _copywave_count                    hongwai
D:   000001D8  _copywave_p                        hongwai
D:   000001DB  _copywave_bit_count                hongwai
D:   000001DC  _copy_waveing                      hongwai
D:   000001DD  _copywave_tmp                      hongwai
D:   0000037F  _write_byte_PARM_2                 strorage
D:   00000383  _write_page_PARM_2                 strorage
D:   0000038A  _read_byte_PARM_2                  strorage
D:   00000393  _read_sequ_PARM_2                  strorage
D:   00000396  _read_sequ_PARM_3                  strorage
D:   0000039D  __gptrput_PARM_2                   _gptrput
D:   0000039E  __mulint_PARM_2                    _mulint
ASxxxx Linker V03.00 + NoICE + sdld,  page 15.
Hexadecimal  [32-Bits]

Area                                    Addr        Size        Decimal Bytes (Attributes)
--------------------------------        ----        ----        ------- ----- ------------
XISEG                               000003A0    0000002B =          43. bytes (REL,CON,XDATA)

      Value  Global                              Global Defined In Module
      -----  --------------------------------   ------------------------
D:   000003A0  _OS_START                          core
D:   000003A2  _b                                 test
D:   000003A4  _choose                            application
D:   000003A5  _serial_r                          serial
D:   000003A7  _serial_w                          serial
D:   000003A9  _serial_end                        serial
D:   000003AB  _semaphore                         semaphore
D:   000003BB  _ready_list                        semaphore

ASxxxx Linker V03.00 + NoICE + sdld,  page 16.
Hexadecimal  [32-Bits]

Area                                    Addr        Size        Decimal Bytes (Attributes)
--------------------------------        ----        ----        ------- ----- ------------
HOME                                00000000    00000049 =          73. bytes (REL,CON,CODE)

      Value  Global                              Global Defined In Module
      -----  --------------------------------   ------------------------
C:   00000046  __sdcc_program_startup             test

ASxxxx Linker V03.00 + NoICE + sdld,  page 17.
Hexadecimal  [32-Bits]

Area                                    Addr        Size        Decimal Bytes (Attributes)
--------------------------------        ----        ----        ------- ----- ------------
GSINIT0                             00000049    00000003 =           3. bytes (REL,CON,CODE)

      Value  Global                              Global Defined In Module
      -----  --------------------------------   ------------------------
C:   00000049  __sdcc_gsinit_startup              

ASxxxx Linker V03.00 + NoICE + sdld,  page 18.
Hexadecimal  [32-Bits]

Area                                    Addr        Size        Decimal Bytes (Attributes)
--------------------------------        ----        ----        ------- ----- ------------
GSINIT2                             0000004C    0000000A =          10. bytes (REL,CON,CODE)

      Value  Global                              Global Defined In Module
      -----  --------------------------------   ------------------------
ASxxxx Linker V03.00 + NoICE + sdld,  page 19.
Hexadecimal  [32-Bits]

Area                                    Addr        Size        Decimal Bytes (Attributes)
--------------------------------        ----        ----        ------- ----- ------------
GSINIT3                             00000056    00000022 =          34. bytes (REL,CON,CODE)

      Value  Global                              Global Defined In Module
      -----  --------------------------------   ------------------------
C:   00000056  __mcs51_genXINIT                   

ASxxxx Linker V03.00 + NoICE + sdld,  page 20.
Hexadecimal  [32-Bits]

Area                                    Addr        Size        Decimal Bytes (Attributes)
--------------------------------        ----        ----        ------- ----- ------------
GSINIT4                             00000078    0000002A =          42. bytes (REL,CON,CODE)

      Value  Global                              Global Defined In Module
      -----  --------------------------------   ------------------------
C:   00000078  __mcs51_genRAMCLEAR                
C:   0000007E  __mcs51_genXRAMCLEAR               

ASxxxx Linker V03.00 + NoICE + sdld,  page 21.
Hexadecimal  [32-Bits]

Area                                    Addr        Size        Decimal Bytes (Attributes)
--------------------------------        ----        ----        ------- ----- ------------
GSFINAL                             000000A2    00000003 =           3. bytes (REL,CON,CODE)

      Value  Global                              Global Defined In Module
      -----  --------------------------------   ------------------------
ASxxxx Linker V03.00 + NoICE + sdld,  page 22.
Hexadecimal  [32-Bits]

Area                                    Addr        Size        Decimal Bytes (Attributes)
--------------------------------        ----        ----        ------- ----- ------------
CSEG                                000000A5    00001EB9 =        7865. bytes (REL,CON,CODE)

      Value  Global                              Global Defined In Module
      -----  --------------------------------   ------------------------
C:   000000A5  _schedule                          core
C:   00000125  _stack_init                        core
C:   00000168  _tcb_init                          core
C:   000001E8  _task_create                       core
C:   00000270  _task_del                          core
C:   000002B6  _os_init                           core
C:   00000314  _os_start                          core
C:   00000370  _switch_task                       
C:   0000039E  _switch_task_int                   
C:   000003D7  _exit_int                          
C:   00000419  _hongwai                           
C:   00000441  _delay                             test
C:   00000498  _interrupt_disable                 test
C:   000004BE  _interrupt_enable                  test
C:   000004E5  _ext0_isr                          test
C:   0000056A  _ext1_isr                          test
C:   000005F7  _s2_isr                            test
C:   000006C6  _s1_isr                            test
C:   000007A0  _t0_isr                            test
C:   000007A1  _t1_isr                            test
C:   000008C8  _pca_isr                           test
C:   00000A0E  _idle                              test
C:   00000A18  _te                                test
C:   00000AD4  _maichong                          test
C:   00000AE4  _sound_init                        test
C:   00000AEF  _key_init                          test
C:   00000AFB  _hw_init                           test
C:   00000B14  _main                              test
C:   00000B44  _task1                             application
C:   00000B77  _task2                             application
C:   00000B9D  _cmd                               application
C:   00000BC8  _reply                             application
C:   00000C1F  _blue                              application
C:   00000C74  _red                               application
C:   00000CB1  _app                               application
C:   00000CF7  _putc                              serial
C:   00000D16  _sendstr                           serial
C:   00000D80  _display                           serial
C:   00000E0C  _receive_data                      serial
C:   00000F28  _uart_init                         serial
C:   00000F85  _semaphore_init                    semaphore
C:   00000FB2  _get_semaphore                     semaphore
C:   0000106F  _release_semaphore                 semaphore
C:   0000115B  _sendstr2                          wifi
C:   00001236  _receive_data2                     wifi
C:   00001368  _wifi_init                         wifi
C:   000013C6  _sound_play                        sound
C:   0000143E  _sound_stop                        sound
C:   00001444  _memset                            libc
C:   000014B6  _memcpy                            libc
ASxxxx Linker V03.00 + NoICE + sdld,  page 23.
Hexadecimal  [32-Bits]

Area                                    Addr        Size        Decimal Bytes (Attributes)
--------------------------------        ----        ----        ------- ----- ------------
CSEG                                000000A5    00001EB9 =        7865. bytes (REL,CON,CODE)

      Value  Global                              Global Defined In Module
      -----  --------------------------------   ------------------------
C:   00001555  _memcmp                            libc
C:   00001642  _strcpy                            libc
C:   000016C1  _strcat                            libc
C:   00001747  _pca_timer                         hongwai
C:   00001768  _delay1                            hongwai
C:   00001793  _fashe                             hongwai
C:   0000189B  _copy_wave                         hongwai
C:   00001973  _luzhi                             hongwai
C:   00001A07  _iic_start                         strorage
C:   00001A32  _iic_stop                          strorage
C:   00001A55  _iic_send                          strorage
C:   00001ABF  _iic_recv                          strorage
C:   00001B64  _iic_recv_noack                    strorage
C:   00001C01  _write_byte                        strorage
C:   00001C81  _write_page                        strorage
C:   00001D36  _read_byte                         strorage
C:   00001DC7  _read_cur                          strorage
C:   00001E08  _read_sequ                         strorage
C:   00001F03  __gptrput                          _gptrput
C:   00001F1E  __mulint                           _mulint
C:   00001F3E  __gptrget                          _gptrget
C:   00001F5A  __sdcc_external_startup            _startup
ASxxxx Linker V03.00 + NoICE + sdld,  page 24.
Hexadecimal  [32-Bits]

Area                                    Addr        Size        Decimal Bytes (Attributes)
--------------------------------        ----        ----        ------- ----- ------------
CONST                               00001F5E    000002AE =         686. bytes (REL,CON,CODE)

      Value  Global                              Global Defined In Module
      -----  --------------------------------   ------------------------
C:   00001F5E  _READYMAP                          core
C:   0000215E  _MASK                              core
C:   000021DE  _m                                 sound
ASxxxx Linker V03.00 + NoICE + sdld,  page 25.
Hexadecimal  [32-Bits]

Area                                    Addr        Size        Decimal Bytes (Attributes)
--------------------------------        ----        ----        ------- ----- ------------
XINIT                               0000220C    0000002B =          43. bytes (REL,CON,CODE)

      Value  Global                              Global Defined In Module
      -----  --------------------------------   ------------------------
ASxxxx Linker V03.00 + NoICE + sdld,  page 26.

Files Linked                              [ module(s) ]

core.rel                                  [  ]
cpu.rel                                   [  ]
test.rel                                  [  ]
application.rel                           [  ]
serial.rel                                [  ]
semaphore.rel                             [  ]
wifi.rel                                  [  ]
sound.rel                                 [  ]
libc.rel                                  [  ]
hongwai.rel                               [  ]
strorage.rel                              [  ]


Libraries Linked                          [ object file ]

/usr/bin/../share/sdcc/lib/large/mcs51.lib
                                          [ crtclear.rel ]
/usr/bin/../share/sdcc/lib/large/mcs51.lib
                                          [ crtxinit.rel ]
/usr/bin/../share/sdcc/lib/large/libsdcc.lib
                                          [ _gptrput.rel ]
/usr/bin/../share/sdcc/lib/large/libint.lib
                                          [ _mulint.rel ]
/usr/bin/../share/sdcc/lib/large/mcs51.lib
                                          [ crtxclear.rel ]
/usr/bin/../share/sdcc/lib/large/libsdcc.lib
                                          [ _bp.rel ]
/usr/bin/../share/sdcc/lib/large/mcs51.lib
                                          [ crtpagesfr.rel ]
/usr/bin/../share/sdcc/lib/large/mcs51.lib
                                          [ crtstart.rel ]
/usr/bin/../share/sdcc/lib/large/libsdcc.lib
                                          [ _gptrget.rel ]
/usr/bin/../share/sdcc/lib/large/libsdcc.lib
                                          [ _startup.rel ]

ASxxxx Linker V03.00 + NoICE + sdld,  page 27.

User Base Address Definitions

HOME = 0x0000
XSEG = 0x0001
PSEG = 0x0001
ISEG = 0x0000
BSEG = 0x0000

